(dp1
S'files'
p2
(dp3
S'input'
p4
(lp5
sS'output'
p6
(lp7
(dp8
S'argName'
p9
S'outputEVNTFile'
p10
sS'dataset'
p11
NsS'type'
p12
S'EVNT'
p13
sS'subFiles'
p14
(lp15
(dp16
S'run_number'
p17
(lp18
L387632L
asS'name'
p19
S'test2.EVNT.pool.root'
p20
sS'beam_energy'
p21
(lp22
F6500000
asS'file_type'
p23
S'pool'
p24
sS'AODFixVersion'
p25
S''
sS'lumi_block'
p26
(lp27
L0L
asS'geometry'
p28
NsS'beam_type'
p29
(lp30
S'collisions'
p31
asS'file_guid'
p32
S'2918AF94-EB39-A247-82FE-712E283B05D6'
p33
sS'file_size'
p34
I194779830
sS'conditions_tag'
p35
NsS'integrity'
p36
I01
sS'nentries'
p37
L5000L
sasassS'exitMsg'
p38
S'OK'
p39
sS'exitMsgExtra'
p40
S''
sS'exitCode'
p41
I0
sS'resource'
p42
(dp43
S'machine'
p44
(dp45
S'node'
p46
S'at3i00.hep.upenn.edu'
p47
sS'linux_distribution'
p48
(S'Scientific Linux'
S'6.8'
S'Carbon'
tp49
sS'platform'
p50
S'Linux-2.6.32-573.12.1.el6.x86_64-x86_64-with-redhat-6.8-Carbon'
p51
sS'cpu_family'
p52
S'6'
sS'model'
p53
S'26'
p54
sS'model_name'
p55
S'Intel(R) Xeon(R) CPU           X5570  @ 2.93GHz'
p56
ssS'transform'
p57
(dp58
S'externalCpuTime'
p59
I7
sS'cpuTime'
p60
I11
sS'wallTime'
p61
I3683
ssS'executor'
p62
(dp63
S'generate'
p64
(dp65
g60
I3555
sg61
I3663
ssssg19
S'Generate_tf'
p66
sS'created'
p67
S'2016-08-23T16:51:00'
p68
sS'cmdLine'
p69
S"'/cvmfs/atlas.cern.ch/repo/sw/software/x86_64-slc6-gcc47-opt/19.2.4/AtlasProduction/19.2.4.4/InstallArea/share/bin/Generate_tf.py' '--ecmEnergy' '13000' '--firstEvent' '1' '--randomSeed' '1' '--jobConfig' 'MC15.387632.MGPy8EG_A14N_TT_onestepBB_800_170_169.py' '--outputEVNTFile' 'test2.EVNT.pool.root' '--runNumber' '387632' '--maxEvents' '5000'"
p70
sS'exitAcronym'
p71
g39
sg62
(lp72
(dp73
S'metaData'
p74
(dp75
S'genFilterNames'
p76
S''
sS'GenFiltEff'
p77
S'1.000000e+00'
p78
sS'generator'
p79
S'Pythia 8.186'
p80
sS'physicsComment'
p81
S'stop direct pair production, st->b+chargino in simplified model'
p82
sS'contactPhysicist'
p83
S'takashi.yamanaka@cern.ch'
p84
sS'generatorTune'
p85
S'A14 NNPDF23LO'
p86
sS'generatorName'
p87
S'MadGraph+Pythia8+EvtGen'
p88
sS'keywords'
p89
S'susy, simplifiedmodel'
p90
sS'cross-section (nb)'
p91
S'2.436e-05'
p92
sS'specialConfig'
p93
S'NONE'
p94
ssg19
g64
sS'asetup'
p95
NsS'exeConfig'
p96
(dp97
S'outputs'
p98
(lp99
S'EVNT'
p100
asS'script'
p101
S'athena.py'
p102
sS'substep'
p103
NssS'statusOK'
p104
I01
sS'rc'
p105
I0
sS'validation'
p106
I01
sS'errMsg'
p107
S''
sS'logfileReport'
p108
(dp109
S'details'
p110
(dp111
sS'countSummary'
p112
(dp113
S'INFO'
p114
I1462
sS'IGNORED'
p115
I0
sS'VERBOSE'
p116
I0
sS'UNKNOWN'
p117
I47959
sS'WARNING'
p118
I508
sS'CRITICAL'
p119
I0
sS'ERROR'
p120
I0
sS'DEBUG'
p121
I0
sS'FATAL'
p122
I0
sssasS'reportVersion'
p123
S'1.0.1'
p124
sS'argValues'
p125
(dp126
S'randomSeed'
p127
(dp128
S'all'
p129
I1
ssS'printEvts'
p130
I5
sS'runNumber'
p131
I387632
sS'maxEvents'
p132
(dp133
g129
I5000
ssS'jobConfig'
p134
(dp135
g129
(lp136
S'MC15.387632.MGPy8EG_A14N_TT_onestepBB_800_170_169.py'
p137
assS'ecmEnergy'
p138
F13000
sS'athenaopts'
p139
(lp140
S'--preloadlib=/cvmfs/atlas.cern.ch/repo/sw/software/x86_64-slc6-gcc47-opt/19.2.4/sw/IntelSoftware/linux/x86_64/xe2013/composer_xe_2013.3.163/compiler/lib/intel64/libintlc.so.5:/cvmfs/atlas.cern.ch/repo/sw/software/x86_64-slc6-gcc47-opt/19.2.4/sw/IntelSoftware/linux/x86_64/xe2013/composer_xe_2013.3.163/compiler/lib/intel64/libimf.so'
p141
asS'firstEvent'
p142
I1
sg10
(lp143
g20
ass.