(dp1
S'prodsys'
p2
(dp3
S'trfExitCode'
p4
I5
sS'trfAcronym'
p5
S'ATH_JOP_NOTFOUND'
p6
sS'athAcronym'
p7
S'an error occurred when including a file'
p8
sS'athCode'
p9
S'2'
sS'jobOutputs'
p10
(lp11
sS'jobInputs'
p12
(lp13
sS'trfCode'
p14
I10510
sS'nevents'
p15
I0
sS'more'
p16
(dp17
S'Machine'
p18
(dp19
S'machine'
p20
S'x86_64'
p21
sS'node'
p22
S'at3i00.hep.upenn.edu'
p23
sS'model'
p24
S'Intel(R) Xeon(R) CPU           X5570  @ 2.93GHz 8192 KB'
p25
sS'dist'
p26
S'redhat-6.6-Carbon'
p27
sS'architecture'
p28
S'64bit-ELF'
p29
sS'platform'
p30
S'Linux-2.6.32-504.3.3.el6.x86_64-x86_64-with-redhat-6.6-Carbon'
p31
sS'python_version'
p32
S'2.6.5'
p33
sS'cachesize'
p34
S'8192 KB'
p35
sS'system'
p36
S'Linux'
p37
sS'processor'
p38
S'x86_64'
p39
ssssg16
(dp40
S'RunDirAvailableDisk'
p41
S'19453181952'
p42
sS'Errors'
p43
I0
sS'ErrorLines'
p44
(dp45
S'Generate'
p46
(lp47
(dp48
S'code'
p49
S'10510'
p50
sS'severity'
p51
S'FATAL'
p52
sS'producer'
p53
g46
sS'acronym'
p54
g6
sS'message'
p55
S'IncludeError: include file MC12JobOptions/Herwigpp_UEEE4_CTEQ6L1_Common.py can not be found'
p56
sS'stage'
p57
S'initialise'
p58
sassS'ProducerVersion'
p59
S'unknown'
p60
sS'Environment'
p61
(dp62
S'ATLASTESTDATA'
p63
S'/cvmfs/atlas.cern.ch/repo/sw/software/x86_64-slc5-gcc43-opt/17.2.14/atlas/offline/ReleaseData/v15/testfile'
p64
sS'BLAS'
p65
S'/cvmfs/atlas.cern.ch/repo/sw/software/x86_64-slc5-gcc43-opt/17.2.14/sw/lcg/external/blas/20070405/x86_64-slc5-gcc43-opt'
p66
sS'ATLAS_LOCAL_GCC_PATH'
p67
S'/cvmfs/atlas.cern.ch/repo/ATLASLocalRootBase/x86_64/Gcc/gcc481_x86_64_slc6'
p68
sS'ANT_SITE'
p69
S'CMT'
p70
sS'_JAVA_OPTIONS'
p71
S'-Xms64m -Xmx128m'
p72
sS'DBRELEASE_REQUESTED'
p73
S'current'
p74
sS'JAVA_SUBDIR'
p75
S'sw/lcg/external/Java'
p76
sS'ATLAS_LOCAL_GSL_PATH'
p77
S'/cvmfs/atlas.cern.ch/repo/ATLASLocalRootBase/x86_64/gsl/1.10-x86_64-slc6-gcc48-opt'
p78
sS'ALRB_SHELL'
p79
S'bash'
p80
sS'ATLASMKLLIBDIR'
p81
S'/cvmfs/atlas.cern.ch/repo/sw/software/x86_64-slc5-gcc43-opt/17.2.14/sw/IntelSoftware/linux/x86_64/xe2011/composerxe-2011.2.137/mkl/lib/intel64'
p82
sS'TEXINPUTS'
p83
S'/afs/cern.ch/sw/lcg/external/MCGenerators_lcgcmt67b/rivet/2.1.2/x86_64-slc6-gcc47-opt/share/Rivet/texmf/tex:/cvmfs/atlas.cern.ch/repo/sw/software/x86_64-slc6-gcc47-opt/19.2.1/sw/lcg/external/MCGenerators_lcgcmt67c/rivet/2.2.0/x86_64-slc6-gcc47-opt/share/Rivet/texmf/tex'
p84
sS'ALRBtestPath'
p85
S',,,,,,,,'
p86
sS'ALRB_printHelpMain'
p87
S'\\n...Type localSetupAGIS to setup AGIS\\n...Type localSetupAtlantis to setup Atlantis\\n...Type localSetupDQ2Client to use DQ2 Client\\n...Type localSetupEIClient to setup EIClient\\n...Type localSetupEmi to use emi\\n...Type localSetupFAX to use FAX\\n...Type localSetupGanga to use Ganga\\n...Type localSetupGcc to use alternate gcc\\n...Type localSetupPacman to use Pacman\\n...Type localSetupPandaClient to use Panda Client\\n...Type localSetupPyAMI to setup pyAMI\\n...Type localSetupPoD to setup Proof-on-Demand\\n...Type localSetupROOT to setup (standalone) ROOT\\n...Type localSetupRucioClients to setup rucio-clients\\n...Type localSetupSFT to setup SFT packages\\n...Type localSetupXRootD to setup XRootD\\n...Type showVersions to show versions of installed software\\n...Type asetup to setup a release (changeASetup to change asetup version)\\n...Type rcSetup to setup an ASG release (changeRCSetup to change rcSetup ver.)\\n...Type diagnostics for diagnostic tools\\n...Type helpMe for more help\\n...Type printMenu to show this menu'
p88
sS'BCAST_CMD'
p89
S'make'
p90
sS'ATLAS_LOCAL_ASETUP_PATH'
p91
S'/cvmfs/atlas.cern.ch/repo/ATLASLocalRootBase/x86_64/AtlasSetup/V00-04-20'
p92
sS'ALRB_SFT_LCGEXT_MAP'
p93
S'/cvmfs/sft.cern.ch/lcg/mapfile.txt'
p94
sS'COOL_DISABLE_CORALCONNECTIONPOOLCLEANUP'
p95
S'YES'
p96
sS'GEANT4'
p97
S'/cvmfs/atlas.cern.ch/repo/sw/software/x86_64-slc5-gcc43-opt/17.2.14/AtlasSimulation/17.2.14/InstallArea/external/Geant4/releases/specific/x86_64-slc5-gcc43-opt'
p98
sS'MADPATH'
p99
S'/cvmfs/atlas.cern.ch/repo/sw/software/x86_64-slc5-gcc43-opt/17.2.14/madgraph/MG5_aMC_v2_2_2_p1'
p100
sS'COMPILER_PATH'
p101
S'/afs/cern.ch/sw/lcg/external/gcc/4.7.2/x86_64-slc6/lib/gcc/x86_64-unknown-linux-gnu/4.7.2'
p102
sS'SVNUSR'
p103
S'svn+ssh://svn.cern.ch/reps/atlas-shepj'
p104
sS'G4INCLUDE'
p105
S'/cvmfs/atlas.cern.ch/repo/sw/software/x86_64-slc5-gcc43-opt/17.2.14/AtlasSimulation/17.2.14/InstallArea/external/Geant4/releases/share/geant4.9.4.patch04.atlas07/include'
p106
sS'AtlasSetupRuntimeStatus'
p107
S'0'
sS'ATLAS_LOCAL_DAVIX_VERSION'
p108
S'0.4.0-x86_64-slc6'
p109
sS'ALRB_SCRATCH'
p110
S'/home/shepj/.alrb'
p111
sS'PYTHONPATH'
p112
S'/home/shepj/gen15/InstallArea/python:/home/shepj/gen15/InstallArea/x86_64-slc5-gcc43-opt/lib/python2.6:/cvmfs/atlas.cern.ch/repo/tools/slc6/cmt/InstallArea/python:/cvmfs/atlas.cern.ch/repo/sw/software/x86_64-slc5-gcc43-opt/17.2.14/AtlasProduction/17.2.14.6/InstallArea/x86_64-slc5-gcc43-opt/lib/python2.6:/cvmfs/atlas.cern.ch/repo/sw/software/x86_64-slc5-gcc43-opt/17.2.14/AtlasProduction/17.2.14.6/InstallArea/python:/cvmfs/atlas.cern.ch/repo/sw/software/x86_64-slc5-gcc43-opt/17.2.14/AtlasOffline/17.2.14/InstallArea/x86_64-slc5-gcc43-opt/lib/python2.6:/cvmfs/atlas.cern.ch/repo/sw/software/x86_64-slc5-gcc43-opt/17.2.14/AtlasOffline/17.2.14/InstallArea/python:/cvmfs/atlas.cern.ch/repo/sw/software/x86_64-slc5-gcc43-opt/17.2.14/AtlasAnalysis/17.2.14/InstallArea/x86_64-slc5-gcc43-opt/lib/python2.6:/cvmfs/atlas.cern.ch/repo/sw/software/x86_64-slc5-gcc43-opt/17.2.14/AtlasAnalysis/17.2.14/InstallArea/python:/cvmfs/atlas.cern.ch/repo/sw/software/x86_64-slc5-gcc43-opt/17.2.14/AtlasSimulation/17.2.14/InstallArea/x86_64-slc5-gcc43-opt/lib/python2.6:/cvmfs/atlas.cern.ch/repo/sw/software/x86_64-slc5-gcc43-opt/17.2.14/AtlasSimulation/17.2.14/InstallArea/python:/cvmfs/atlas.cern.ch/repo/sw/software/x86_64-slc5-gcc43-opt/17.2.14/AtlasTrigger/17.2.14/InstallArea/x86_64-slc5-gcc43-opt/lib/python2.6:/cvmfs/atlas.cern.ch/repo/sw/software/x86_64-slc5-gcc43-opt/17.2.14/AtlasTrigger/17.2.14/InstallArea/python:/cvmfs/atlas.cern.ch/repo/sw/software/x86_64-slc5-gcc43-opt/17.2.14/AtlasReconstruction/17.2.14/InstallArea/x86_64-slc5-gcc43-opt/lib/python2.6:/cvmfs/atlas.cern.ch/repo/sw/software/x86_64-slc5-gcc43-opt/17.2.14/AtlasReconstruction/17.2.14/InstallArea/python:/cvmfs/atlas.cern.ch/repo/sw/software/x86_64-slc5-gcc43-opt/17.2.14/AtlasEvent/17.2.14/InstallArea/x86_64-slc5-gcc43-opt/lib/python2.6:/cvmfs/atlas.cern.ch/repo/sw/software/x86_64-slc5-gcc43-opt/17.2.14/AtlasEvent/17.2.14/InstallArea/python:/cvmfs/atlas.cern.ch/repo/sw/software/x86_64-slc5-gcc43-opt/17.2.14/AtlasConditions/17.2.14/InstallArea/x86_64-slc5-gcc43-opt/lib/python2.6:/cvmfs/atlas.cern.ch/repo/sw/software/x86_64-slc5-gcc43-opt/17.2.14/AtlasConditions/17.2.14/InstallArea/python:/cvmfs/atlas.cern.ch/repo/sw/software/x86_64-slc5-gcc43-opt/17.2.14/AtlasCore/17.2.14/InstallArea/x86_64-slc5-gcc43-opt/lib/python2.6:/cvmfs/atlas.cern.ch/repo/sw/software/x86_64-slc5-gcc43-opt/17.2.14/AtlasCore/17.2.14/InstallArea/python:/cvmfs/atlas.cern.ch/repo/sw/software/x86_64-slc5-gcc43-opt/17.2.14/DetCommon/17.2.14/InstallArea/x86_64-slc5-gcc43-opt/lib/python2.6:/cvmfs/atlas.cern.ch/repo/sw/software/x86_64-slc5-gcc43-opt/17.2.14/DetCommon/17.2.14/InstallArea/python:/cvmfs/atlas.cern.ch/repo/sw/software/x86_64-slc5-gcc43-opt/17.2.14/GAUDI/v22r1p8d-lcg61f/InstallArea/python:/cvmfs/atlas.cern.ch/repo/sw/software/x86_64-slc5-gcc43-opt/17.2.14/sw/lcg/external/pyanalysis/1.2_python2.6/x86_64-slc5-gcc43-opt/lib/python2.6/site-packages:/cvmfs/atlas.cern.ch/repo/sw/software/x86_64-slc5-gcc43-opt/17.2.14/external/ZSI/2.1-a1/lib/python:/cvmfs/atlas.cern.ch/repo/sw/software/x86_64-slc5-gcc43-opt/17.2.14/sw/lcg/external/pygraphics/1.1p1_python2.6/x86_64-slc5-gcc43-opt/lib/python2.6/site-packages:/cvmfs/atlas.cern.ch/repo/sw/software/x86_64-slc5-gcc43-opt/17.2.14/sw/lcg/external/pytools/1.6_python2.6/x86_64-slc5-gcc43-opt/lib/python2.6/site-packages:/cvmfs/atlas.cern.ch/repo/sw/software/x86_64-slc5-gcc43-opt/17.2.14/sw/lcg/app/releases/COOL/COOL_2_8_15a/x86_64-slc5-gcc43-opt/python:/cvmfs/atlas.cern.ch/repo/sw/software/x86_64-slc5-gcc43-opt/17.2.14/sw/lcg/app/releases/CORAL/CORAL_2_3_24a/x86_64-slc5-gcc43-opt/python:/cvmfs/atlas.cern.ch/repo/sw/software/x86_64-slc5-gcc43-opt/17.2.14/sw/lcg/app/releases/CORAL/CORAL_2_3_24a/x86_64-slc5-gcc43-opt/lib:/cvmfs/atlas.cern.ch/repo/sw/software/x86_64-slc5-gcc43-opt/17.2.14/sw/lcg/app/releases/ROOT/5.30.05/x86_64-slc5-gcc43-opt/root/lib:/afs/cern.ch/sw/lcg/external/MCGenerators_lcgcmt67b/rivet/2.1.2/x86_64-slc6-gcc47-opt/lib/python2.7/site-packages:/afs/cern.ch/sw/lcg/external/MCGenerators_lcgcmt67b/yoda/1.1.0/x86_64-slc6-gcc47-opt/lib/python2.7/site-packages:/afs/cern.ch/atlas/offline/external/root-snapshot/atlas-5.34.13p1/x86_64-slc6-gcc47-opt/lib:/home/shepj/xaod/ROOTAnalysisTutorial/RootCoreBin/python:/cvmfs/atlas.cern.ch/repo/sw/software/x86_64-slc6-gcc47-opt/19.2.1/sw/lcg/external/MCGenerators_lcgcmt67c/lhapdf/6.1.4/x86_64-slc6-gcc47-opt/lib/python2.7/site-packages:/cvmfs/atlas.cern.ch/repo/sw/software/x86_64-slc6-gcc47-opt/19.2.1/atlas/offline/external/root-snapshot/atlas-5.34.13p1/x86_64-slc6-gcc47-opt/lib:/cvmfs/atlas.cern.ch/repo/sw/software/x86_64-slc5-gcc43-opt/17.2.14/tdaq-common/tdaq-common-01-18-04/installed/share/lib/python:/cvmfs/atlas.cern.ch/repo/sw/software/x86_64-slc5-gcc43-opt/17.2.14/tdaq-common/tdaq-common-01-18-04/installed/x86_64-slc5-gcc43-opt/lib:/cvmfs/atlas.cern.ch/repo/sw/software/x86_64-slc5-gcc43-opt/17.2.14/dqm-common/dqm-common-00-18-03/installed/share/lib/python'
p113
sS'CMTHEADVERSION'
p114
S'<package>-r<revision>'
p115
sS'host_cmtconfig'
p116
S'x86_64-slc6-gcc45-opt'
p117
sS'G4UI_USE_WO'
p118
S'1'
sS'AtlasVersion'
p119
S'17.2.14.6'
p120
sS'ALRB_OSMAJORVER'
p121
S'6'
sS'ALRB_RHVER'
p122
S'6'
sS'HOSTNAME'
p123
S'at3i00.hep.upenn.edu'
p124
sS'SELINUX_LEVEL_REQUESTED'
p125
S''
sS'SELINUX_USE_CURRENT_RANGE'
p126
S''
sS'GCCXMLVERS'
p127
S'0.9.0_20100114'
p128
sS'G4VIS_USE_DAWNFILE'
p129
S'1'
sS'COOLVERS'
p130
S'COOL_2_8_15a'
p131
sS'SVNGRP'
p132
S'svn+ssh://svn.cern.ch/reps/atlasgrp'
p133
sS'G4SAIDXSDATA'
p134
S'/cvmfs/atlas.cern.ch/repo/sw/software/x86_64-slc6-gcc47-opt/19.1.4/AtlasSimulation/19.1.4/InstallArea/external/Geant4/releases/share/geant4.9.6.patch03.atlas02/data/G4SAIDXSDATA'
p135
sS'GCCXML_COMPILER'
p136
S'/cvmfs/atlas.cern.ch/repo/ATLASLocalRootBase/x86_64/Gcc/gcc481_x86_64_slc6/slc6/gcc48/bin/c++'
p137
sS'XRD_RUNFORKHANDLER'
p138
S'1'
sS'CORAL_AUTH_PATH'
p139
S'/cvmfs/atlas.cern.ch/repo/sw/database/DBRelease/current/XMLConfig'
p140
sS'CMTCONFIG'
p141
S'x86_64-slc5-gcc43-opt'
p142
sS'JOBOPTSEARCHPATH'
p143
S',/home/shepj/gen15/InstallArea/jobOptions,.,/cvmfs/atlas.cern.ch/repo/sw/software/x86_64-slc5-gcc43-opt/17.2.14/AtlasProduction/17.2.14.6/InstallArea/jobOptions,/cvmfs/atlas.cern.ch/repo/sw/software/x86_64-slc5-gcc43-opt/17.2.14/AtlasOffline/17.2.14/InstallArea/jobOptions,/cvmfs/atlas.cern.ch/repo/sw/software/x86_64-slc5-gcc43-opt/17.2.14/AtlasAnalysis/17.2.14/InstallArea/jobOptions,/cvmfs/atlas.cern.ch/repo/sw/software/x86_64-slc5-gcc43-opt/17.2.14/AtlasSimulation/17.2.14/InstallArea/jobOptions,/cvmfs/atlas.cern.ch/repo/sw/software/x86_64-slc5-gcc43-opt/17.2.14/AtlasTrigger/17.2.14/InstallArea/jobOptions,/cvmfs/atlas.cern.ch/repo/sw/software/x86_64-slc5-gcc43-opt/17.2.14/AtlasReconstruction/17.2.14/InstallArea/jobOptions,/cvmfs/atlas.cern.ch/repo/sw/software/x86_64-slc5-gcc43-opt/17.2.14/AtlasEvent/17.2.14/InstallArea/jobOptions,/cvmfs/atlas.cern.ch/repo/sw/software/x86_64-slc5-gcc43-opt/17.2.14/AtlasConditions/17.2.14/InstallArea/jobOptions,/cvmfs/atlas.cern.ch/repo/sw/software/x86_64-slc5-gcc43-opt/17.2.14/AtlasCore/17.2.14/InstallArea/jobOptions,/cvmfs/atlas.cern.ch/repo/sw/software/x86_64-slc5-gcc43-opt/17.2.14/GAUDI/v22r1p8d-lcg61f/InstallArea/jobOptions'
p144
sS'ATLAS_TAGS_MAP'
p145
S'none'
p146
sS'G4VIS_USE_RAYTRACER'
p147
S'1'
sS'USER'
p148
S'shepj'
p149
sS'XercesCVERS'
p150
S'3.1.1p1'
p151
sS'ATLASMKLLIBDIR_PRELOAD'
p152
S'/cvmfs/atlas.cern.ch/repo/sw/software/x86_64-slc5-gcc43-opt/17.2.14/sw/IntelSoftware/linux/x86_64/xe2011/composerxe-2011.2.137/compiler/lib/intel64'
p153
sS'ALRB_GPPBINPATH'
p154
S'/cvmfs/atlas.cern.ch/repo/ATLASLocalRootBase/x86_64/Gcc/gcc481_x86_64_slc6/slc6/gcc48/bin'
p155
sS'G4LIB_BUILD_GDML'
p156
S'1'
sS'G4VIS_USE_VRMLFILE'
p157
S'1'
sS'CORALVERS'
p158
S'CORAL_2_3_24a'
p159
sS'QT_PLUGIN_PATH'
p160
S'/cvmfs/atlas.cern.ch/repo/sw/software/x86_64-slc5-gcc43-opt/17.2.14/sw/lcg/external/qwt/5.2.1_qt4.6.3/x86_64-slc5-gcc43-opt/plugins'
p161
sS'AtlasPatchArea'
p162
S'/cvmfs/atlas.cern.ch/repo/sw/software/x86_64-slc5-gcc43-opt/17.2.14/AtlasProduction/17.2.14.6'
p163
sS'G4INSTALL'
p164
S'/cvmfs/atlas.cern.ch/repo/sw/software/x86_64-slc5-gcc43-opt/17.2.14/AtlasSimulation/17.2.14/InstallArea/external/Geant4/releases/specific/x86_64-slc5-gcc43-opt/geant4.9.4.patch04.atlas07'
p165
sS'AtlasPatch'
p166
S'AtlasProduction'
p167
sS'DAWN_BSD_UNIX_DOMAIN'
p168
S'1'
sS'ATLAS_LOCAL_FFTW_PATH'
p169
S'/cvmfs/atlas.cern.ch/repo/ATLASLocalRootBase/x86_64/fftw/3.1.2-x86_64-slc6-gcc48-opt'
p170
sS'G4NEUTRONHPDATA'
p171
S'/cvmfs/atlas.cern.ch/repo/sw/software/x86_64-slc5-gcc43-opt/17.2.14/AtlasSimulation/17.2.14/InstallArea/external/Geant4/releases/share/geant4.9.4.patch04.atlas07/data/G4NDL'
p172
sS'MODULESHOME'
p173
S'/usr/share/Modules'
p174
sS'MODULEPATH'
p175
S'/usr/share/Modules/modulefiles:/etc/modulefiles'
p176
sS'G4VERS'
p177
S'geant4.9.4.patch04.atlas07'
p178
sS'ALRB_useGridSW'
p179
S'emi'
p180
sS'ATLAS_LOCAL_SETUP_OPTIONS'
p181
S'--quiet'
p182
sS'TCMALLOCDIR'
p183
S'/cvmfs/atlas.cern.ch/repo/sw/software/x86_64-slc5-gcc43-opt/17.2.14/external/tcmalloc/google-perftools-0.99.2c/x86_64-slc5-gcc43-opt/lib'
p184
sS'CMTUSERCONTEXT'
p185
S'/cvmfs/atlas.cern.ch/repo/tools/slc6/cmt'
p186
sS'CLASSPATH'
p187
S'/cvmfs/atlas.cern.ch/repo/sw/software/x86_64-slc5-gcc43-opt/17.2.14/CMT/v1r25/java'
p188
sS'CMTPATH'
p189
S'/home/shepj/gen15:/cvmfs/atlas.cern.ch/repo/tools/slc6/cmt:/cvmfs/atlas.cern.ch/repo/sw/software/x86_64-slc5-gcc43-opt/17.2.14/AtlasProduction/17.2.14.6:/cvmfs/atlas.cern.ch/repo/sw/software/x86_64-slc5-gcc43-opt/17.2.14/AtlasOffline/17.2.14:/cvmfs/atlas.cern.ch/repo/sw/software/x86_64-slc5-gcc43-opt/17.2.14/AtlasAnalysis/17.2.14:/cvmfs/atlas.cern.ch/repo/sw/software/x86_64-slc5-gcc43-opt/17.2.14/AtlasSimulation/17.2.14:/cvmfs/atlas.cern.ch/repo/sw/software/x86_64-slc5-gcc43-opt/17.2.14/AtlasTrigger/17.2.14:/cvmfs/atlas.cern.ch/repo/sw/software/x86_64-slc5-gcc43-opt/17.2.14/AtlasReconstruction/17.2.14:/cvmfs/atlas.cern.ch/repo/sw/software/x86_64-slc5-gcc43-opt/17.2.14/AtlasEvent/17.2.14:/cvmfs/atlas.cern.ch/repo/sw/software/x86_64-slc5-gcc43-opt/17.2.14/dqm-common/dqm-common-00-18-03:/cvmfs/atlas.cern.ch/repo/sw/software/x86_64-slc5-gcc43-opt/17.2.14/AtlasConditions/17.2.14:/cvmfs/atlas.cern.ch/repo/sw/software/x86_64-slc5-gcc43-opt/17.2.14/AtlasCore/17.2.14:/cvmfs/atlas.cern.ch/repo/sw/software/x86_64-slc5-gcc43-opt/17.2.14/tdaq-common/tdaq-common-01-18-04:/cvmfs/atlas.cern.ch/repo/sw/software/x86_64-slc5-gcc43-opt/17.2.14/DetCommon/17.2.14:/cvmfs/atlas.cern.ch/repo/sw/software/x86_64-slc5-gcc43-opt/17.2.14/GAUDI/v22r1p8d-lcg61f:/cvmfs/atlas.cern.ch/repo/sw/software/x86_64-slc5-gcc43-opt/17.2.14/LCGCMT/LCGCMT_61c'
p190
sS'PAC_ANCHOR'
p191
S'/cvmfs/atlas.cern.ch/repo/ATLASLocalRootBase/x86_64/Gcc/gcc481_x86_64_slc6'
p192
sS'uuidVERS'
p193
S'1.42'
p194
sS'ATLAS_LOCAL_GSL_VERSION'
p195
S'1.10-x86_64-slc6-gcc48-opt'
p196
sS'G4DAWNFILE_VIEWER'
p197
S'dawn'
p198
sS'G4UI_USE_TERMINAL'
p199
S'1'
sS'CMTSITE'
p200
S'STANDALONE'
p201
sS'G4PATH'
p202
S'/cvmfs/atlas.cern.ch/repo/sw/software/x86_64-slc5-gcc43-opt/17.2.14/AtlasSimulation/17.2.14/InstallArea/external/Geant4/releases'
p203
sS'_'
S'/cvmfs/atlas.cern.ch/repo/sw/software/x86_64-slc5-gcc43-opt/17.2.14/AtlasProduction/17.2.14.6/InstallArea/share/bin/Generate_trf.py'
p204
sS'AtlasSetupSite'
p205
S'/cvmfs/atlas.cern.ch/repo/ATLASLocalRootBase/x86_64/AtlasSetup/.config/.asetup.site'
p206
sS'G4VIS_USE_DAWN'
p207
S'1'
sS'AtlasProject'
p208
S'AtlasProduction'
p209
sS'TEXMFHOME'
p210
S'/afs/cern.ch/sw/lcg/external/MCGenerators_lcgcmt67b/rivet/2.1.2/x86_64-slc6-gcc47-opt/share/Rivet/texmf:/cvmfs/atlas.cern.ch/repo/sw/software/x86_64-slc6-gcc47-opt/19.2.1/sw/lcg/external/MCGenerators_lcgcmt67c/rivet/2.2.0/x86_64-slc6-gcc47-opt/share/Rivet/texmf'
p211
sS'ALRB_cvmfs_nightly_repo'
p212
S'/cvmfs/atlas-nightlies.cern.ch/repo'
p213
sS'CPPEXPFLAGS'
p214
S' -D__USE_XOPEN2K8 '
p215
sS'ALRB_cvmfs_Athena'
p216
S'/cvmfs/atlas.cern.ch/repo/sw/software'
p217
sS'ATLASCALDATA'
p218
S'/cvmfs/atlas.cern.ch/repo/sw/software/x86_64-slc5-gcc43-opt/17.2.14/atlas/offline/ReleaseData/v15'
p219
sS'ALRB_cvmfs_condb_repo'
p220
S'/cvmfs/atlas-condb.cern.ch/repo'
p221
sS'Geant4_data'
p222
S'/cvmfs/atlas.cern.ch/repo/sw/software/x86_64-slc5-gcc43-opt/17.2.14/AtlasSimulation/17.2.14/InstallArea/external/Geant4/releases/share/geant4.9.4.patch04.atlas07/data'
p223
sS'DBRELEASE'
p224
S'current'
p225
sS'QTINC'
p226
S'/usr/lib64/qt-3.3/include'
p227
sS'ALRB_allowSL6onSL5'
p228
S'NO'
p229
sS'CALIBPATH'
p230
S'/home/shepj/gen15/InstallArea/share:/afs/cern.ch/atlas/software/builds/nightlies/19.1.X.Y-VAL/AtlasDerivation/rel_5/InstallArea/share:/cvmfs/atlas.cern.ch/repo/sw/software/x86_64-slc6-gcc47-opt/19.1.4/AtlasOffline/19.1.4/InstallArea/share:/cvmfs/atlas.cern.ch/repo/sw/software/x86_64-slc6-gcc47-opt/19.1.4/AtlasSimulation/19.1.4/InstallArea/share:/cvmfs/atlas.cern.ch/repo/sw/software/x86_64-slc6-gcc47-opt/19.1.4/AtlasAnalysis/19.1.4/InstallArea/share:/cvmfs/atlas.cern.ch/repo/sw/software/x86_64-slc6-gcc47-opt/19.1.4/AtlasTrigger/19.1.4/InstallArea/share:/cvmfs/atlas.cern.ch/repo/sw/software/x86_64-slc6-gcc47-opt/19.1.4/AtlasReconstruction/19.1.4/InstallArea/share:/cvmfs/atlas.cern.ch/repo/sw/software/x86_64-slc6-gcc47-opt/19.1.4/AtlasEvent/19.1.4/InstallArea/share:/cvmfs/atlas.cern.ch/repo/sw/software/x86_64-slc6-gcc47-opt/19.1.4/AtlasConditions/19.1.4/InstallArea/share:/cvmfs/atlas.cern.ch/repo/sw/software/x86_64-slc6-gcc47-opt/19.1.4/AtlasCore/19.1.4/InstallArea/share:/cvmfs/atlas.cern.ch/repo/sw/software/x86_64-slc6-gcc47-opt/19.1.4/DetCommon/19.1.4/InstallArea/share:/cvmfs/atlas.cern.ch/repo/sw/software/x86_64-slc6-gcc47-opt/19.1.4/GAUDI/v24r1p2-lcg67b/InstallArea/share:/cvmfs/atlas.cern.ch/repo/sw/software/x86_64-slc6-gcc47-opt/19.1.4/LCGCMT/LCGCMT_67b/InstallArea/share:/home/shepj/AtlasCalib:/home/shepj/xaod/ROOTAnalysisTutorial/RootCoreBin/download:/home/shepj/xaod/ROOTAnalysisTutorial/RootCoreBin/data:/home/shepj/InstallArea/share:/cvmfs/atlas.cern.ch/repo/sw/software/x86_64-slc6-gcc47-opt/19.2.1/AtlasProduction/19.2.1.3/InstallArea/share:/cvmfs/atlas.cern.ch/repo/sw/software/x86_64-slc6-gcc47-opt/19.2.1/AtlasOffline/19.2.1/InstallArea/share:/cvmfs/atlas.cern.ch/repo/sw/software/x86_64-slc6-gcc47-opt/19.2.1/AtlasSimulation/19.2.1/InstallArea/share:/cvmfs/atlas.cern.ch/repo/sw/software/x86_64-slc6-gcc47-opt/19.2.1/AtlasAnalysis/19.2.1/InstallArea/share:/cvmfs/atlas.cern.ch/repo/sw/software/x86_64-slc6-gcc47-opt/19.2.1/AtlasTrigger/19.2.1/InstallArea/share:/cvmfs/atlas.cern.ch/repo/sw/software/x86_64-slc6-gcc47-opt/19.2.1/AtlasReconstruction/19.2.1/InstallArea/share:/cvmfs/atlas.cern.ch/repo/sw/software/x86_64-slc6-gcc47-opt/19.2.1/AtlasEvent/19.2.1/InstallArea/share:/cvmfs/atlas.cern.ch/repo/sw/software/x86_64-slc6-gcc47-opt/19.2.1/AtlasConditions/19.2.1/InstallArea/share:/cvmfs/atlas.cern.ch/repo/sw/software/x86_64-slc6-gcc47-opt/19.2.1/dqm-common/dqm-common-00-26-02/InstallArea/share:/cvmfs/atlas.cern.ch/repo/sw/software/x86_64-slc6-gcc47-opt/19.2.1/AtlasCore/19.2.1/InstallArea/share:/cvmfs/atlas.cern.ch/repo/sw/software/x86_64-slc6-gcc47-opt/19.2.1/DetCommon/19.2.1/InstallArea/share:/cvmfs/atlas.cern.ch/repo/sw/software/x86_64-slc6-gcc47-opt/19.2.1/tdaq-common/tdaq-common-01-28-00/InstallArea/share:/cvmfs/atlas.cern.ch/repo/sw/software/x86_64-slc6-gcc47-opt/19.2.1/GAUDI/v25r3p1/InstallArea/share:/cvmfs/atlas.cern.ch/repo/sw/software/x86_64-slc6-gcc47-opt/19.2.1/LCGCMT/LCGCMT_67b/InstallArea/share:/cvmfs/atlas.cern.ch/repo/sw/software/x86_64-slc6-gcc47-opt/19.2.1/GAUDI/v25r3p1/PartPropSvc/share:/cvmfs/atlas.cern.ch/repo/sw/software/x86_64-slc6-gcc47-opt/19.2.1/atlas/offline/ReleaseData/v19:/cvmfs/atlas.cern.ch/repo/sw/software/x86_64-slc6-gcc47-opt/19.2.1/atlas/offline/ReleaseData/v19/testfile:/cvmfs/atlas.cern.ch/repo/sw/software/x86_64-slc6-gcc47-opt/19.2.1/atlas/project/magfield/CTB:/cvmfs/atlas.cern.ch/repo/sw/database/GroupData:/afs/cern.ch/atlas/www/GROUPS/DATABASE/GroupData:http//atlas.web.cern.ch/Atlas/GROUPS/DATABASE/GroupData'
p231
sS'SVNOFF'
p232
S'svn+ssh://svn.cern.ch/reps/atlasoff'
p233
sS'ATLAS_GPERFTOOLS_DIR'
p234
S'/cvmfs/atlas.cern.ch/repo/sw/software/x86_64-slc5-gcc43-opt/17.2.14/AtlasProduction/17.2.14.6/InstallArea/x86_64-slc5-gcc43-opt/lib'
p235
sS'ALRB_cvmfs_repo'
p236
S'/cvmfs/atlas.cern.ch/repo'
p237
sS'G4NEUTRONXSDATA'
p238
S'/cvmfs/atlas.cern.ch/repo/sw/software/x86_64-slc5-gcc43-opt/17.2.14/AtlasSimulation/17.2.14/InstallArea/external/Geant4/releases/share/geant4.9.4.patch04.atlas07/data/G4NEUTRONXS'
p239
sS'AtlasPatchVersion'
p240
S'17.2.14.6'
p241
sS'GSLVERS'
p242
S'1.10'
p243
sS'G4LEDATA'
p244
S'/cvmfs/atlas.cern.ch/repo/sw/software/x86_64-slc5-gcc43-opt/17.2.14/AtlasSimulation/17.2.14/InstallArea/external/Geant4/releases/share/geant4.9.4.patch04.atlas07/data/G4EMLOW'
p245
sS'G4LIB'
p246
S'/cvmfs/atlas.cern.ch/repo/sw/software/x86_64-slc5-gcc43-opt/17.2.14/AtlasSimulation/17.2.14/InstallArea/external/Geant4/releases/specific/x86_64-slc5-gcc43-opt/geant4.9.4.patch04.atlas07/lib'
p247
sS'AtlasSetupStatus'
p248
S'0'
sS'G4UI_USE_GAG'
p249
S'1'
sS'NLS_LANG'
p250
S'AMERICAN_AMERICA.WE8ISO8859P1'
p251
sS'XMLPATH'
p252
S'/home/shepj/gen15/InstallArea/XML:/cvmfs/atlas.cern.ch/repo/sw/software/x86_64-slc5-gcc43-opt/17.2.14/AtlasProduction/17.2.14.6/InstallArea/XML:/cvmfs/atlas.cern.ch/repo/sw/software/x86_64-slc5-gcc43-opt/17.2.14/AtlasAnalysis/17.2.14/InstallArea/XML:/cvmfs/atlas.cern.ch/repo/sw/software/x86_64-slc5-gcc43-opt/17.2.14/AtlasTrigger/17.2.14/InstallArea/XML:/cvmfs/atlas.cern.ch/repo/sw/software/x86_64-slc5-gcc43-opt/17.2.14/AtlasReconstruction/17.2.14/InstallArea/XML:/cvmfs/atlas.cern.ch/repo/sw/software/x86_64-slc5-gcc43-opt/17.2.14/AtlasConditions/17.2.14/InstallArea/XML:/cvmfs/atlas.cern.ch/repo/sw/software/x86_64-slc5-gcc43-opt/17.2.14/AtlasCore/17.2.14/InstallArea/XML:/cvmfs/atlas.cern.ch/repo/sw/software/x86_64-slc5-gcc43-opt/17.2.14/DetCommon/17.2.14/InstallArea/XML'
p253
sS'ATLAS_DB_AREA'
p254
S'/cvmfs/atlas.cern.ch/repo/sw/database'
p255
sS'TEXMFCNF'
p256
S'/afs/cern.ch/sw/lcg/external/MCGenerators_lcgcmt67b/rivet/2.1.2/x86_64-slc6-gcc47-opt/share/Rivet/texmf/cnf:/cvmfs/atlas.cern.ch/repo/sw/software/x86_64-slc6-gcc47-opt/19.2.1/sw/lcg/external/MCGenerators_lcgcmt67c/rivet/2.2.0/x86_64-slc6-gcc47-opt/share/Rivet/texmf/cnf'
p257
sS'QTDIR'
p258
S'/cvmfs/atlas.cern.ch/repo/sw/software/x86_64-slc5-gcc43-opt/17.2.14/sw/lcg/external/qt/4.6.3p2/x86_64-slc5-gcc43-opt'
p259
sS'LHAPDF_DATA_PATH'
p260
S'/afs/cern.ch/sw/lcg/external/MCGenerators_lcgcmt67b/lhapdf6/6.1.3/x86_64-slc6-gcc47-opt/share/LHAPDF:/afs/cern.ch/sw/lcg/external/lhapdfsets/current/'
p261
sS'DO_EXT_ATHENA_TAB_COMPLETION'
p262
S'0'
sS'LD_LIBRARY_PATH'
p263
S'/home/shepj/gen15/InstallArea/x86_64-slc5-gcc43-opt/lib:/cvmfs/atlas.cern.ch/repo/sw/software/x86_64-slc5-gcc43-opt/17.2.14/AtlasProduction/17.2.14.6/InstallArea/x86_64-slc5-gcc43-opt/lib:/cvmfs/atlas.cern.ch/repo/sw/software/x86_64-slc5-gcc43-opt/17.2.14/AtlasOffline/17.2.14/InstallArea/x86_64-slc5-gcc43-opt/lib:/cvmfs/atlas.cern.ch/repo/sw/software/x86_64-slc5-gcc43-opt/17.2.14/AtlasAnalysis/17.2.14/InstallArea/x86_64-slc5-gcc43-opt/lib:/cvmfs/atlas.cern.ch/repo/sw/software/x86_64-slc5-gcc43-opt/17.2.14/AtlasSimulation/17.2.14/InstallArea/x86_64-slc5-gcc43-opt/lib:/cvmfs/atlas.cern.ch/repo/sw/software/x86_64-slc5-gcc43-opt/17.2.14/AtlasTrigger/17.2.14/InstallArea/x86_64-slc5-gcc43-opt/lib:/cvmfs/atlas.cern.ch/repo/sw/software/x86_64-slc5-gcc43-opt/17.2.14/AtlasReconstruction/17.2.14/InstallArea/x86_64-slc5-gcc43-opt/lib:/cvmfs/atlas.cern.ch/repo/sw/software/x86_64-slc5-gcc43-opt/17.2.14/AtlasEvent/17.2.14/InstallArea/x86_64-slc5-gcc43-opt/lib:/cvmfs/atlas.cern.ch/repo/sw/software/x86_64-slc5-gcc43-opt/17.2.14/AtlasConditions/17.2.14/InstallArea/x86_64-slc5-gcc43-opt/lib:/cvmfs/atlas.cern.ch/repo/sw/software/x86_64-slc5-gcc43-opt/17.2.14/AtlasCore/17.2.14/InstallArea/x86_64-slc5-gcc43-opt/lib:/cvmfs/atlas.cern.ch/repo/sw/software/x86_64-slc5-gcc43-opt/17.2.14/DetCommon/17.2.14/InstallArea/x86_64-slc5-gcc43-opt/lib:/cvmfs/atlas.cern.ch/repo/sw/software/x86_64-slc5-gcc43-opt/17.2.14/GAUDI/v22r1p8d-lcg61f/InstallArea/x86_64-slc5-gcc43-opt/lib:/cvmfs/atlas.cern.ch/repo/sw/software/x86_64-slc5-gcc43-opt/17.2.14/LCGCMT/LCGCMT_61c/InstallArea/x86_64-slc5-gcc43-opt/lib:/cvmfs/atlas.cern.ch/repo/sw/software/x86_64-slc5-gcc43-opt/17.2.14/sw/lcg/external/valgrind/3.5.0/x86_64-slc5-gcc43-opt/lib/valgrind:/cvmfs/atlas.cern.ch/repo/sw/software/x86_64-slc5-gcc43-opt/17.2.14/AtlasSite/gcc-links/x86_64-slc5-gcc43-opt/lib64:/cvmfs/atlas.cern.ch/repo/sw/software/x86_64-slc5-gcc43-opt/17.2.14/sw/lcg/external/MCGenerators_lcgcmt61f/winhac/1.31/x86_64-slc5-gcc43-opt/lib:/cvmfs/atlas.cern.ch/repo/sw/software/x86_64-slc5-gcc43-opt/17.2.14/sw/lcg/external/MCGenerators_lcgcmt61f/toprex/4.23/x86_64-slc5-gcc43-opt/lib:/cvmfs/atlas.cern.ch/repo/sw/software/x86_64-slc5-gcc43-opt/17.2.14/sw/lcg/external/MCGenerators_lcgcmt61f/hydjet/1.6/x86_64-slc5-gcc43-opt/lib:/afs/cern.ch/sw/lcg/external/MCGenerators_lcgcmt67b/hydjet/1.6/x86_64-slc6-gcc47-opt/lib:/afs/cern.ch/sw/lcg/external/gcc/4.7.2/x86_64-slc6/lib64:/cvmfs/atlas.cern.ch/repo/sw/atlas-gcc/472/x86_64/slc6/x86_64-slc6-gcc47-opt/lib64:/cvmfs/atlas.cern.ch/repo/ATLASLocalRootBase/x86_64/Gcc/gcc481_x86_64_slc6/slc6/gcc48/lib64:/cvmfs/atlas.cern.ch/repo/ATLASLocalRootBase/x86_64/Gcc/gcc481_x86_64_slc6/slc6/gcc48/lib:/home/shepj/xaod/ROOTAnalysisTutorial/RootCoreBin/lib/x86_64-slc6-gcc48-opt:/cvmfs/atlas.cern.ch/repo/ATLASLocalRootBase/x86_64/davix/0.4.0-x86_64-slc6/lib64:/cvmfs/atlas.cern.ch/repo/ATLASLocalRootBase/x86_64/fftw/3.1.2-x86_64-slc6-gcc48-opt/lib:/cvmfs/atlas.cern.ch/repo/ATLASLocalRootBase/x86_64/gsl/1.10-x86_64-slc6-gcc48-opt/lib:/cvmfs/atlas.cern.ch/repo/sw/software/x86_64-slc6-gcc47-opt/19.2.1/external/yampl/1.0/x86_64-slc6-gcc47-opt/lib:/cvmfs/atlas.cern.ch/repo/sw/software/x86_64-slc6-gcc47-opt/19.2.1/sw/lcg/external/coin3d/3.1.3p2/x86_64-slc6-gcc47-opt/lib:/cvmfs/atlas.cern.ch/repo/sw/software/x86_64-slc6-gcc47-opt/19.2.1/sw/lcg/external/soqt/1.5.0_qt4.8.4_coin3d3.1.3p2/x86_64-slc6-gcc47-opt/lib:/afs/cern.ch/atlas/offline/external/yampl/1.0/x86_64-slc6-gcc47-opt/lib:/afs/cern.ch/sw/lcg/external/coin3d/3.1.3p2/x86_64-slc6-gcc47-opt/lib:/afs/cern.ch/sw/lcg/external/soqt/1.5.0_qt4.8.4_coin3d3.1.3p2/x86_64-slc6-gcc47-opt/lib:/cvmfs/atlas.cern.ch/repo/sw/software/x86_64-slc5-gcc43-opt/17.2.14/sw/lcg/external/coin3d/3.1.3.p1/x86_64-slc5-gcc43-opt/lib:/cvmfs/atlas.cern.ch/repo/sw/software/x86_64-slc5-gcc43-opt/17.2.14/sw/lcg/external/soqt/1.5.0.p1_qt4.6.3.p1_coin3d3.1.3.p1/x86_64-slc5-gcc43-opt/lib:/cvmfs/atlas.cern.ch/repo/sw/software/x86_64-slc5-gcc43-opt/17.2.14/sw/lcg/external/Python/2.6.5/x86_64-slc5-gcc43-opt/lib:/cvmfs/atlas.cern.ch/repo/sw/software/x86_64-slc5-gcc43-opt/17.2.14/tdaq-common/tdaq-common-01-18-04/installed/x86_64-slc5-gcc43-opt/lib:/cvmfs/atlas.cern.ch/repo/sw/software/x86_64-slc5-gcc43-opt/17.2.14/sw/lcg/external/Java/JDK/1.6.0/amd64/jre/lib/amd64:/cvmfs/atlas.cern.ch/repo/sw/software/x86_64-slc5-gcc43-opt/17.2.14/sw/lcg/external/Java/JDK/1.6.0/amd64/jre/lib/amd64/server:/cvmfs/atlas.cern.ch/repo/sw/software/x86_64-slc5-gcc43-opt/17.2.14/sw/lcg/external/Java/JDK/1.6.0/amd64/jre/lib/amd64/native_threads:/cvmfs/atlas.cern.ch/repo/sw/software/x86_64-slc5-gcc43-opt/17.2.14/sw/lcg/external/Java/JDK/1.6.0/amd64/jre/lib/amd64/xawt:/cvmfs/atlas.cern.ch/repo/sw/software/x86_64-slc5-gcc43-opt/17.2.14/dqm-common/dqm-common-00-18-03/installed/x86_64-slc5-gcc43-opt/lib:/cvmfs/atlas.cern.ch/repo/sw/software/x86_64-slc5-gcc43-opt/17.2.14/sw/lcg/external/qwt/5.2.1_qt4.6.3/x86_64-slc5-gcc43-opt/lib:/usr/lib64'
p264
sS'QTLIB'
p265
S'/usr/lib64/qt-3.3/lib'
p266
sS'LIBRARY_PATH'
p267
S'/cvmfs/atlas.cern.ch/repo/ATLASLocalRootBase/x86_64/python/2.7.4-x86_64-slc6-gcc48/sw/lcg/external/Python/2.7.4/x86_64-slc6-gcc48-opt/lib'
p268
sS'ALPGENPATH'
p269
S'/cvmfs/atlas.cern.ch/repo/sw/software/x86_64-slc5-gcc43-opt/17.2.14/alpgen/v2.1.4_p9'
p270
sS'LAPACK'
p271
S'/cvmfs/atlas.cern.ch/repo/sw/software/x86_64-slc5-gcc43-opt/17.2.14/sw/lcg/external/lapack/3.1.1/x86_64-slc5-gcc43-opt'
p272
sS'SVNPERF'
p273
S'svn+ssh://svn.cern.ch/reps/atlasperf'
p274
sS'G_BROKEN_FILENAMES'
p275
S'1'
sS'DATAPATH'
p276
S'/home/shepj/gen15/InstallArea/share:/cvmfs/atlas.cern.ch/repo/tools/slc6/cmt/InstallArea/share:/cvmfs/atlas.cern.ch/repo/sw/software/x86_64-slc5-gcc43-opt/17.2.14/AtlasProduction/17.2.14.6/InstallArea/share:/cvmfs/atlas.cern.ch/repo/sw/software/x86_64-slc5-gcc43-opt/17.2.14/AtlasOffline/17.2.14/InstallArea/share:/cvmfs/atlas.cern.ch/repo/sw/software/x86_64-slc5-gcc43-opt/17.2.14/AtlasAnalysis/17.2.14/InstallArea/share:/cvmfs/atlas.cern.ch/repo/sw/software/x86_64-slc5-gcc43-opt/17.2.14/AtlasSimulation/17.2.14/InstallArea/share:/cvmfs/atlas.cern.ch/repo/sw/software/x86_64-slc5-gcc43-opt/17.2.14/AtlasTrigger/17.2.14/InstallArea/share:/cvmfs/atlas.cern.ch/repo/sw/software/x86_64-slc5-gcc43-opt/17.2.14/AtlasReconstruction/17.2.14/InstallArea/share:/cvmfs/atlas.cern.ch/repo/sw/software/x86_64-slc5-gcc43-opt/17.2.14/AtlasEvent/17.2.14/InstallArea/share:/cvmfs/atlas.cern.ch/repo/sw/software/x86_64-slc5-gcc43-opt/17.2.14/AtlasConditions/17.2.14/InstallArea/share:/cvmfs/atlas.cern.ch/repo/sw/software/x86_64-slc5-gcc43-opt/17.2.14/AtlasCore/17.2.14/InstallArea/share:/cvmfs/atlas.cern.ch/repo/sw/software/x86_64-slc5-gcc43-opt/17.2.14/DetCommon/17.2.14/InstallArea/share:/cvmfs/atlas.cern.ch/repo/sw/database/DBRelease/current:/cvmfs/atlas.cern.ch/repo/sw/software/x86_64-slc6-gcc47-opt/19.2.1/GAUDI/v25r3p1/PartPropSvc/share:/cvmfs/atlas.cern.ch/repo/sw/software/x86_64-slc6-gcc47-opt/19.1.4/GAUDI/v24r1p2-lcg67b/PartPropSvc/share:/cvmfs/atlas.cern.ch/repo/sw/software/x86_64-slc5-gcc43-opt/17.2.14/GAUDI/v22r1p8d-lcg61f/PartPropSvc/share:/cvmfs/atlas.cern.ch/repo/sw/software/x86_64-slc5-gcc43-opt/17.2.14/atlas/offline/ReleaseData/v15:/cvmfs/atlas.cern.ch/repo/sw/software/x86_64-slc5-gcc43-opt/17.2.14/atlas/offline/ReleaseData/v15/testfile:/cvmfs/atlas.cern.ch/repo/sw/software/x86_64-slc5-gcc43-opt/17.2.14/atlas/project/magfield/CTB'
p277
sS'AXIS_VERSION'
p278
S'1.4'
p279
sS'AIDAVERS'
p280
S'3.2.1'
p281
sS'NEWCMTCONFIG'
p282
S'x86_64-sl66-gcc436'
p283
sS'DBRELEASE_OVERRIDE'
p284
S'current'
p285
sS'ALRB_cvmfs_ALRB'
p286
S'/cvmfs/atlas.cern.ch/repo/ATLASLocalRootBase'
p287
sS'NO_ALL_GROUPS'
p288
S'1'
sS'TNS_ADMIN'
p289
S'/cvmfs/atlas.cern.ch/repo/sw/database/DBRelease/current/oracle-admin'
p290
sS'CMTSTRUCTURINGSTYLE'
p291
S'without_version_directory'
p292
sS'ATLAS_LOCAL_GCC_VERSION'
p293
S'gcc481_x86_64_slc6'
p294
sS'ATLAS_LOCAL_RCSETUP_VERSION'
p295
S'00-04-11'
p296
sS'FRONTIER_SERVER'
p297
S'(serverurl=http://atlasfrontier-ai.cern.ch:8000/atlr)(serverurl=http://lcgft-atlas.gridpp.rl.ac.uk:3128/frontierATLAS)(serverurl=http://frontier-atlas.lcg.triumf.ca:3128/ATLAS_frontier)(serverurl=http://ccfrontier.in2p3.fr:23128/ccin2p3-AtlasFrontier)'
p298
sS'rootCmtConfig'
p299
S'x86_64-slc6-gcc48-opt'
p300
sS'SVNGROUPS'
p301
S'svn+ssh://svn.cern.ch/reps/atlasgroups'
p302
sS'DYLD_LIBRARY_PATH'
p303
S'/home/shepj/gen15/InstallArea/x86_64-slc5-gcc43-opt/lib:/cvmfs/atlas.cern.ch/repo/sw/software/x86_64-slc5-gcc43-opt/17.2.14/sw/lcg/external/qt/4.6.3p2/x86_64-slc5-gcc43-opt/lib:/cvmfs/atlas.cern.ch/repo/ATLASLocalRootBase/x86_64/xrootd/3.3.6.p1-x86_64-slc6-gcc48-opt/v3.3.6/lib64:/home/shepj/xaod/ROOTAnalysisTutorial/RootCoreBin/lib/x86_64-slc6-gcc48-opt:/cvmfs/atlas.cern.ch/repo/sw/software/x86_64-slc6-gcc47-opt/19.2.1/sw/lcg/external/coin3d/3.1.3p2/x86_64-slc6-gcc47-opt/lib:/cvmfs/atlas.cern.ch/repo/sw/software/x86_64-slc6-gcc47-opt/19.2.1/sw/lcg/external/soqt/1.5.0_qt4.8.4_coin3d3.1.3p2/x86_64-slc6-gcc47-opt/lib:/afs/cern.ch/sw/lcg/external/coin3d/3.1.3p2/x86_64-slc6-gcc47-opt/lib:/afs/cern.ch/sw/lcg/external/soqt/1.5.0_qt4.8.4_coin3d3.1.3p2/x86_64-slc6-gcc47-opt/lib:/cvmfs/atlas.cern.ch/repo/sw/software/x86_64-slc5-gcc43-opt/17.2.14/sw/lcg/external/coin3d/3.1.3.p1/x86_64-slc5-gcc43-opt/lib:/cvmfs/atlas.cern.ch/repo/sw/software/x86_64-slc5-gcc43-opt/17.2.14/sw/lcg/external/soqt/1.5.0.p1_qt4.6.3.p1_coin3d3.1.3.p1/x86_64-slc5-gcc43-opt/lib:/cvmfs/atlas.cern.ch/repo/sw/software/x86_64-slc5-gcc43-opt/17.2.14/sw/lcg/external/qwt/5.2.1_qt4.6.3/x86_64-slc5-gcc43-opt/lib'
p304
sS'SELINUX_ROLE_REQUESTED'
p305
S''
sS'DAWN_GUI_ALWAYS'
p306
S'1'
sS'ORA_FPU_PRECISION'
p307
S'EXTENDED'
p308
sS'BASH_FUNC_module()'
p309
S'() {  eval `/usr/bin/modulecmd bash $*`\n}'
p310
sS'ALRB_cvmfs_CDB'
p311
S'/cvmfs/atlas-condb.cern.ch/repo/conditions'
p312
sS'VERBOSE'
p313
S''
sS'SVNPHYS'
p314
S'svn+ssh://svn.cern.ch/reps/atlasphys'
p315
sS'ATLAS_RELEASE'
p316
g120
sS'ALRB_RELOCATECVMFS'
p317
S'NO'
p318
sS'ALRB_cvmfs_sft_repo'
p319
S'/cvmfs/sft.cern.ch/lcg'
p320
sS'ZSI_VERSION'
p321
S'2.1-a1'
p322
sS'AtlasSetup'
p323
S'/cvmfs/atlas.cern.ch/repo/ATLASLocalRootBase/x86_64/AtlasSetup/V00-04-20/AtlasSetup'
p324
sS'G4VIS_USE_VRML'
p325
S'1'
sS'ATLAS_LOCAL_RCSETUP_PATH'
p326
S'/cvmfs/atlas.cern.ch/repo/ATLASLocalRootBase/x86_64/rcSetup/00-04-11'
p327
sS'SVNINST'
p328
S'svn+ssh://svn.cern.ch/reps/atlasinst'
p329
sS'ATLAS_POOLCOND_PATH'
p330
S'/afs/cern.ch/atlas/conditions/poolcond/catalogue'
p331
sS'POWHEGPATH'
p332
S'/cvmfs/atlas.cern.ch/repo/sw/software/x86_64-slc5-gcc43-opt/17.2.14/powhegbox/r2330.3/POWHEG-BOX'
p333
sS'CMTEXTRATAGS'
p334
S'ATLAS'
p335
sS'ATLAS_LOCAL_DAVIX_PATH'
p336
S'/cvmfs/atlas.cern.ch/repo/ATLASLocalRootBase/x86_64/davix/0.4.0-x86_64-slc6'
p337
sS'CMTBIN'
p338
S'Linux-x86_64'
p339
sS'LOGNAME'
p340
S'shepj'
p341
sS'PATH'
p342
S'/home/shepj/gen15/InstallArea/share/bin:/home/shepj/gen15/InstallArea/x86_64-slc5-gcc43-opt/bin:/cvmfs/atlas.cern.ch/repo/tools/slc6/cmt/InstallArea/share/bin:/cvmfs/atlas.cern.ch/repo/sw/software/x86_64-slc5-gcc43-opt/17.2.14/AtlasProduction/17.2.14.6/InstallArea/share/bin:/cvmfs/atlas.cern.ch/repo/sw/software/x86_64-slc5-gcc43-opt/17.2.14/AtlasOffline/17.2.14/InstallArea/share/bin:/cvmfs/atlas.cern.ch/repo/sw/software/x86_64-slc5-gcc43-opt/17.2.14/AtlasAnalysis/17.2.14/InstallArea/share/bin:/cvmfs/atlas.cern.ch/repo/sw/software/x86_64-slc5-gcc43-opt/17.2.14/AtlasSimulation/17.2.14/InstallArea/share/bin:/cvmfs/atlas.cern.ch/repo/sw/software/x86_64-slc5-gcc43-opt/17.2.14/AtlasTrigger/17.2.14/InstallArea/share/bin:/cvmfs/atlas.cern.ch/repo/sw/software/x86_64-slc5-gcc43-opt/17.2.14/AtlasReconstruction/17.2.14/InstallArea/share/bin:/cvmfs/atlas.cern.ch/repo/sw/software/x86_64-slc5-gcc43-opt/17.2.14/AtlasEvent/17.2.14/InstallArea/share/bin:/cvmfs/atlas.cern.ch/repo/sw/software/x86_64-slc5-gcc43-opt/17.2.14/AtlasConditions/17.2.14/InstallArea/share/bin:/cvmfs/atlas.cern.ch/repo/sw/software/x86_64-slc5-gcc43-opt/17.2.14/AtlasCore/17.2.14/InstallArea/share/bin:/cvmfs/atlas.cern.ch/repo/sw/software/x86_64-slc5-gcc43-opt/17.2.14/DetCommon/17.2.14/InstallArea/share/bin:/cvmfs/atlas.cern.ch/repo/sw/software/x86_64-slc5-gcc43-opt/17.2.14/GAUDI/v22r1p8d-lcg61f/InstallArea/scripts:/cvmfs/atlas.cern.ch/repo/sw/software/x86_64-slc5-gcc43-opt/17.2.14/AtlasAnalysis/17.2.14/InstallArea/x86_64-slc5-gcc43-opt/bin:/cvmfs/atlas.cern.ch/repo/sw/software/x86_64-slc5-gcc43-opt/17.2.14/AtlasSimulation/17.2.14/InstallArea/x86_64-slc5-gcc43-opt/bin:/cvmfs/atlas.cern.ch/repo/sw/software/x86_64-slc5-gcc43-opt/17.2.14/AtlasTrigger/17.2.14/InstallArea/x86_64-slc5-gcc43-opt/bin:/cvmfs/atlas.cern.ch/repo/sw/software/x86_64-slc5-gcc43-opt/17.2.14/AtlasReconstruction/17.2.14/InstallArea/x86_64-slc5-gcc43-opt/bin:/cvmfs/atlas.cern.ch/repo/sw/software/x86_64-slc5-gcc43-opt/17.2.14/AtlasEvent/17.2.14/InstallArea/x86_64-slc5-gcc43-opt/bin:/cvmfs/atlas.cern.ch/repo/sw/software/x86_64-slc5-gcc43-opt/17.2.14/AtlasConditions/17.2.14/InstallArea/x86_64-slc5-gcc43-opt/bin:/cvmfs/atlas.cern.ch/repo/sw/software/x86_64-slc5-gcc43-opt/17.2.14/AtlasCore/17.2.14/InstallArea/x86_64-slc5-gcc43-opt/bin:/cvmfs/atlas.cern.ch/repo/sw/software/x86_64-slc5-gcc43-opt/17.2.14/DetCommon/17.2.14/InstallArea/x86_64-slc5-gcc43-opt/bin:/cvmfs/atlas.cern.ch/repo/sw/software/x86_64-slc5-gcc43-opt/17.2.14/GAUDI/v22r1p8d-lcg61f/InstallArea/x86_64-slc5-gcc43-opt/bin:/cvmfs/atlas.cern.ch/repo/sw/software/x86_64-slc5-gcc43-opt/17.2.14/LCGCMT/LCGCMT_61c/InstallArea/x86_64-slc5-gcc43-opt/bin:/cvmfs/atlas.cern.ch/repo/sw/software/x86_64-slc5-gcc43-opt/17.2.14/sw/lcg/external/pyanalysis/1.2_python2.6/x86_64-slc5-gcc43-opt/bin:/cvmfs/atlas.cern.ch/repo/sw/software/x86_64-slc5-gcc43-opt/17.2.14/sw/lcg/external/valgrind/3.5.0/x86_64-slc5-gcc43-opt/bin:/cvmfs/atlas.cern.ch/repo/sw/software/x86_64-slc5-gcc43-opt/17.2.14/sw/lcg/external/sqlite/3.6.22/x86_64-slc5-gcc43-opt/bin:/cvmfs/atlas.cern.ch/repo/sw/software/x86_64-slc5-gcc43-opt/17.2.14/sw/lcg/app/releases/POOL/POOL_2_9_21/x86_64-slc5-gcc43-opt/bin:/cvmfs/atlas.cern.ch/repo/sw/software/x86_64-slc5-gcc43-opt/17.2.14/sw/lcg/external/qt/4.6.3p2/x86_64-slc5-gcc43-opt/bin:/cvmfs/atlas.cern.ch/repo/sw/software/x86_64-slc5-gcc43-opt/17.2.14/sw/lcg/external/pygraphics/1.1p1_python2.6/x86_64-slc5-gcc43-opt/bin:/cvmfs/atlas.cern.ch/repo/sw/software/x86_64-slc5-gcc43-opt/17.2.14/sw/lcg/external/Java/Ant/1.7.0/share/bin:/cvmfs/atlas.cern.ch/repo/sw/software/x86_64-slc5-gcc43-opt/17.2.14/sw/lcg/external/pytools/1.6_python2.6/x86_64-slc5-gcc43-opt/bin:/cvmfs/atlas.cern.ch/repo/sw/software/x86_64-slc5-gcc43-opt/17.2.14/sw/lcg/external/oracle/11.2.0.3.0/x86_64-slc5-gcc43-opt/bin:/cvmfs/atlas.cern.ch/repo/sw/software/x86_64-slc5-gcc43-opt/17.2.14/sw/lcg/app/releases/COOL/COOL_2_8_15a/x86_64-slc5-gcc43-opt/bin:/cvmfs/atlas.cern.ch/repo/sw/software/x86_64-slc5-gcc43-opt/17.2.14/sw/lcg/app/releases/CORAL/CORAL_2_3_24a/x86_64-slc5-gcc43-opt/bin:/cvmfs/atlas.cern.ch/repo/sw/software/x86_64-slc5-gcc43-opt/17.2.14/sw/lcg/app/releases/ROOT/5.30.05/x86_64-slc5-gcc43-opt/root/bin:/cvmfs/atlas.cern.ch/repo/sw/software/x86_64-slc5-gcc43-opt/17.2.14/sw/lcg/external/gccxml/0.9.0_20100114/x86_64-slc5-gcc43-opt/bin:/cvmfs/atlas.cern.ch/repo/sw/software/x86_64-slc5-gcc43-opt/17.2.14/sw/lcg/external/Python/2.6.5/x86_64-slc5-gcc43-opt/bin:/cvmfs/atlas.cern.ch/repo/sw/software/x86_64-slc5-gcc43-opt/17.2.14/CMT/v1r25/Linux-x86_64:/cvmfs/atlas.cern.ch/repo/sw/software/x86_64-slc5-gcc43-opt/17.2.14/AtlasSite/gcc-links/x86_64-slc5-gcc43-opt/bin:/cvmfs/atlas.cern.ch/repo/sw/software/x86_64-slc5-gcc43-opt/17.2.14/sw/lcg/external/MCGenerators_lcgcmt61f/rivet/1.9.0/x86_64-slc5-gcc43-opt/bin:/cvmfs/atlas.cern.ch/repo/sw/software/x86_64-slc6-gcc47-opt/19.1.4/DetCommon/19.1.4/InstallArea/scripts:/cvmfs/atlas.cern.ch/repo/sw/software/x86_64-slc6-gcc47-opt/19.1.4/GAUDI/v24r1p2-lcg67b/InstallArea/scripts:/afs/cern.ch/sw/lcg/external/MCGenerators_lcgcmt67b/rivet/2.1.2/x86_64-slc6-gcc47-opt/bin:/afs/cern.ch/sw/lcg/external/MCGenerators_lcgcmt67b/yoda/1.1.0/x86_64-slc6-gcc47-opt/bin:/afs/cern.ch/atlas/offline/external/root-snapshot/atlas-5.34.13p1/x86_64-slc6-gcc47-opt/bin:/afs/cern.ch/sw/lcg/external/xrootd/3.2.7/x86_64-slc6-gcc47-opt/bin:/afs/cern.ch/sw/lcg/external/gcc/4.7.2/x86_64-slc6/bin:/cvmfs/atlas.cern.ch/repo/sw/atlas-gcc/472/x86_64/slc6/x86_64-slc6-gcc47-opt/bin:/cvmfs/atlas.cern.ch/repo/ATLASLocalRootBase/x86_64/Gcc/gcc481_x86_64_slc6/slc6/gcc48/bin:/home/shepj/xaod/ROOTAnalysisTutorial/RootCoreBin/bin/x86_64-slc6-gcc48-opt:/cvmfs/atlas.cern.ch/repo/sw/software/x86_64-slc6-gcc47-opt/19.2.1/DetCommon/19.2.1/InstallArea/scripts:/cvmfs/atlas.cern.ch/repo/sw/software/x86_64-slc6-gcc47-opt/19.2.1/GAUDI/v25r3p1/InstallArea/scripts:/cvmfs/atlas.cern.ch/repo/sw/software/x86_64-slc6-gcc47-opt/19.2.1/atlas/offline/external/root-snapshot/atlas-5.34.13p1/x86_64-slc6-gcc47-opt/bin:/cvmfs/atlas.cern.ch/repo/ATLASLocalRootBase/x86_64/davix/0.4.0-x86_64-slc6/bin:/cvmfs/atlas.cern.ch/repo/ATLASLocalRootBase/x86_64/fftw/3.1.2-x86_64-slc6-gcc48-opt/bin:/cvmfs/atlas.cern.ch/repo/ATLASLocalRootBase/x86_64/gsl/1.10-x86_64-slc6-gcc48-opt/bin:/usr/lib64/qt-3.3/bin:/bin:/usr/bin:/usr/local/sbin:/usr/sbin:/sbin:/opt/dell/srvadmin/bin:/cvmfs/atlas.cern.ch/repo/sw/software/x86_64-slc6-gcc47-opt/19.2.1/tdaq-common/tdaq-common-01-28-00/installed/x86_64-slc6-gcc47-opt/bin:/cvmfs/atlas.cern.ch/repo/sw/software/x86_64-slc6-gcc47-opt/19.1.4/tdaq-common/tdaq-common-01-28-00/installed/x86_64-slc6-gcc47-opt/bin:/cvmfs/atlas.cern.ch/repo/sw/software/x86_64-slc5-gcc43-opt/17.2.14/tdaq-common/tdaq-common-01-18-04/installed/x86_64-slc5-gcc43-opt/bin:/cvmfs/atlas.cern.ch/repo/sw/software/x86_64-slc5-gcc43-opt/17.2.14/sw/lcg/external/Java/JDK/1.6.0/amd64/jre/bin:/cvmfs/atlas.cern.ch/repo/sw/software/x86_64-slc5-gcc43-opt/17.2.14/sw/lcg/external/Java/JDK/1.6.0/amd64/bin:/cvmfs/atlas.cern.ch/repo/sw/software/x86_64-slc5-gcc43-opt/17.2.14/dqm-common/dqm-common-00-18-03/installed/x86_64-slc5-gcc43-opt/bin'
p343
sS'ATLAS_LOCAL_FFTW_VERSION'
p344
S'3.1.2-x86_64-slc6-gcc48-opt'
p345
sS'ALRB_OSTYPE'
p346
S'Linux'
p347
sS'ALRB_SFT_LCG'
p348
S'/cvmfs/sft.cern.ch/lcg'
p349
sS'ATLAS_LOCAL_PYTHON_VERSION'
p350
S'2.7.4-x86_64-slc6-gcc48'
p351
sS'MAKEFLAGS'
p352
S'-j16 QUICK=1 -l16'
p353
sS'My_SQL'
p354
S'/cvmfs/atlas.cern.ch/repo/sw/software/x86_64-slc5-gcc43-opt/17.2.14/sw/lcg/external/mysql/5.5.14/x86_64-slc5-gcc43-opt'
p355
sS'G4LEVELGAMMADATA'
p356
S'/cvmfs/atlas.cern.ch/repo/sw/software/x86_64-slc5-gcc43-opt/17.2.14/AtlasSimulation/17.2.14/InstallArea/external/Geant4/releases/share/geant4.9.4.patch04.atlas07/data/PhotonEvaporation'
p357
sS'CORAL_DBLOOKUP_PATH'
p358
S'/cvmfs/atlas.cern.ch/repo/sw/database/DBRelease/current/XMLConfig'
p359
sS'TestArea'
p360
S'/home/shepj/gen15'
p361
sS'ATLAS_RELEASE_BASE'
p362
S'/cvmfs/atlas.cern.ch/repo/sw/software/x86_64-slc5-gcc43-opt/17.2.14'
p363
sS'CMTPROJECTPATH'
p364
S'/cvmfs/atlas.cern.ch/repo/sw/software/x86_64-slc5-gcc43-opt/17.2.14:/cvmfs/atlas.cern.ch/repo/sw/tdaq/tdaq'
p365
sS'DBRELEASE_REQUIRED'
p366
S'27.1.1'
p367
sS'AtlasArea'
p368
S'/cvmfs/atlas.cern.ch/repo/sw/software/x86_64-slc5-gcc43-opt/17.2.14/AtlasProduction/17.2.14.6'
p369
sS'AtlasBaseDir'
p370
S'/cvmfs/atlas.cern.ch/repo/sw/software/x86_64-slc5-gcc43-opt/17.2.14'
p371
sS'PythonVERS'
p372
S'2.6.5'
p373
sS'ATLAS_LOCAL_ASETUP_VERSION'
p374
S'V00-04-20'
p375
sS'HOME'
p376
S'/home/shepj'
p377
sS'GCC_DIR'
p378
S'/cvmfs/atlas.cern.ch/repo/ATLASLocalRootBase/x86_64/Gcc/gcc481_x86_64_slc6/slc6/gcc48'
p379
sS'ATLAS_LOCAL_GCCXML_VERSION'
p380
S'0.9.0_20120309p2-x86_64-slc6-gcc48-opt'
p381
sS'XRD_ENABLEFORKHANDLERS'
p382
S'1'
sS'HepMCVERS'
p383
S'2.06.05'
p384
sS'LHAPATH'
p385
S'/cvmfs/atlas.cern.ch/repo/sw/software/x86_64-slc5-gcc43-opt/17.2.14/sw/lcg/external/MCGenerators_lcgcmt61f/lhapdf/5.8.9/share/PDFsets'
p386
sS'JAVA_BASE'
p387
S'/cvmfs/atlas.cern.ch/repo/sw/software/x86_64-slc5-gcc43-opt/17.2.14/sw/lcg/external/Java'
p388
sS'SHELL'
p389
S'/bin/bash'
p390
sS'ATLAS_LOCAL_GCCXML_PATH'
p391
S'/cvmfs/atlas.cern.ch/repo/ATLASLocalRootBase/x86_64/gccxml/0.9.0_20120309p2-x86_64-slc6-gcc48-opt'
p392
sS'TwissFilesPATH'
p393
S'/cvmfs/atlas.cern.ch/repo/sw/software/x86_64-slc5-gcc43-opt/17.2.14/AtlasSimulation/17.2.14/InstallArea/external/TwissFiles/TwissFiles/v003'
p394
sS'G4SYSTEM'
p395
S'Linux-g++'
p396
sS'LATEXINPUTS'
p397
S'/afs/cern.ch/sw/lcg/external/MCGenerators_lcgcmt67b/rivet/2.1.2/x86_64-slc6-gcc47-opt/share/Rivet/texmf/tex:/cvmfs/atlas.cern.ch/repo/sw/software/x86_64-slc6-gcc47-opt/19.2.1/sw/lcg/external/MCGenerators_lcgcmt67c/rivet/2.2.0/x86_64-slc6-gcc47-opt/share/Rivet/texmf/tex'
p398
sS'OLDPWD'
p399
S'/home/shepj'
p400
sS'LOADEDMODULES'
p401
S''
sS'XRDSYS'
p402
S'/cvmfs/atlas.cern.ch/repo/ATLASLocalRootBase/x86_64/xrootd/3.3.6.p1-x86_64-slc6-gcc48-opt/v3.3.6'
p403
sS'HISTCONTROL'
p404
S'ignoredups'
p405
sS'PWD'
p406
S'/home/shepj/gen15'
p407
sS'DB_location'
p408
S'/cvmfs/atlas.cern.ch/repo/sw/database/DBRelease/current'
p409
sS'BoostVERS'
p410
S'1.44.0'
p411
sS'GFORTRAN_UNBUFFERED_ALL'
p412
S'y'
sS'QMtestVERS'
p413
S'2.4.1'
p414
sS'ATLAS_EXTERNAL'
p415
S'/cvmfs/atlas.cern.ch/repo/sw/software/x86_64-slc5-gcc43-opt/17.2.14/external'
p416
sS'POOL_OUTMSG_LEVEL'
p417
S'5'
sS'AtlasSetupVersion'
p418
S'AtlasSetup-00-04-20'
p419
sS'LCGCMTVERS'
p420
S'61f'
p421
ssS'Command'
p422
S"/cvmfs/atlas.cern.ch/repo/sw/software/x86_64-slc5-gcc43-opt/17.2.14/AtlasProduction/17.2.14.6/InstallArea/share/bin/Generate_trf.py ecmEnergy='13000' firstEvent='1' randomSeed='1' jobConfig='MC12.205048.Herwigpp_UEEE4_CTEQ6L1_sM_wA_WZ_C1_100_N1_0.py' outputEVNTFile='test.EVNT.pool.root' runNumber='205048' maxEvents='100' "
p423
sS'RunDirUsedDisk'
p424
S'2664780'
p425
sS'AtlasRelease'
p426
g120
sS'ProducerComment'
p427
NsS'Workdir'
p428
S'/home/shepj/gen15'
p429
sS'Producer'
p430
g46
sS'Warnings'
p431
I6
sS'Fatals'
p432
I1
sS'DBRelease'
p433
g225
ss.