(dp0
S'randomSeed'
p1
S'1'
p2
sS'runNumber'
p3
S'205048'
p4
sS'ecmEnergy'
p5
S'13000'
p6
sS'maxEvents'
p7
S'100'
p8
sS'jobConfig'
p9
S'MC12.205048.Herwigpp_UEEE4_CTEQ6L1_sM_wA_WZ_C1_100_N1_0.py'
p10
sS'outputEVNTFile'
p11
S'test.EVNT.pool.root'
p12
sS'firstEvent'
p13
g2
s.